(lp0
(dp1
S'name'
p2
S'edge_L'
p3
sS'interval'
p4
I250
sS'start'
p5
F0.0
sS'shape'
p6
(I120
I180
tp7
sS'train'
p8
I5
sS'amplitude'
p9
F35.0
sS'duration'
p10
F3.0
sS'size'
p11
I6
sa(dp12
g2
S'area_B'
p13
sg4
F300.0
sg5
I1120
sg6
(I120
I180
tp14
sg9
F20.0
sg10
F1.0
sg11
I60
sa.