(lp0
(dp1
S'start'
p2
F0.0
sS'shape'
p3
(I120
I180
tp4
sS'train'
p5
I1
sS'name'
p6
S'edge_L'
p7
sS'amplitude'
p8
F35.0
sS'duration'
p9
F3.0
sS'interval'
p10
F250.0
sS'size'
p11
I6
sa(dp12
g6
S'point'
p13
sg10
F100.0
sg2
F100.0
sg3
(I120
I180
tp14
sg8
F50.0
sg9
F5.0
sg11
(I91
I61
I5
tp15
sa.